Certificate:
    Data:
        Version: 3 (0x2)
        Serial Number: 1048577 (0x100001)
    Signature Algorithm: md5WithRSAEncryption
        Issuer: C=SE, ST=Stockholm, L=Kista, O=RISE, O=Security Lab, OU=5GEnsure, CN=khalid/emailAddress=khalid@rise.se
        Validity
            Not Before: Mar 23 15:39:40 2017 GMT
            Not After : Mar 23 15:39:40 2018 GMT
        Subject: C=SE, ST=Stockholm, L=Kista, O=RISE, O=Security Lab, OU=5GEnsure, CN=controller/emailAddress=controller@sdn.se
        Subject Public Key Info:
            Public Key Algorithm: rsaEncryption
                Public-Key: (2048 bit)
                Modulus:
                    00:b0:a4:8f:1a:f2:8d:23:ea:c8:19:28:6a:77:7c:
                    b5:a6:9e:96:59:ad:ec:f9:82:36:5d:26:03:d5:b7:
                    c0:2f:8f:a4:ed:0e:a9:fb:b4:70:0b:89:76:9c:ac:
                    48:e6:44:ce:81:ca:dc:9a:53:2a:62:ff:65:b9:64:
                    71:88:04:2f:ce:4d:83:67:2e:37:26:14:d9:20:89:
                    0f:ed:31:27:4a:88:a4:29:bd:07:bc:8d:0a:ed:e7:
                    fe:35:65:34:eb:bb:56:ac:03:13:66:34:6e:b0:ea:
                    d8:43:bf:18:fa:31:01:ec:45:d0:d3:c6:db:99:cb:
                    5d:c1:c9:04:81:06:c6:44:cf:7a:25:73:af:85:4b:
                    e5:d9:b6:16:a9:bd:4f:64:c4:cf:df:66:c5:45:f3:
                    16:36:88:1d:d8:e5:e0:db:ec:6b:34:f9:1d:21:0b:
                    89:72:de:86:86:33:0a:af:36:57:de:f4:f2:9e:2f:
                    74:3f:75:96:1b:ed:57:24:c1:f0:5c:d5:d0:95:1e:
                    0a:54:f1:1c:1b:c5:aa:d3:30:12:63:ae:0b:46:ae:
                    59:fe:81:b6:0b:6a:13:b7:ca:10:e8:af:bb:ae:41:
                    15:25:30:d9:f3:2c:c9:23:75:47:ce:5d:9d:4b:46:
                    f5:aa:e3:63:5c:89:fc:ec:67:e7:c3:ab:04:04:f7:
                    e8:e7
                Exponent: 65537 (0x10001)
        X509v3 extensions:
            X509v3 Basic Constraints: 
                CA:FALSE
            Netscape Comment: 
                OpenSSL Generated Certificate
            X509v3 Subject Key Identifier: 
                31:61:90:F7:F1:FB:01:D2:BE:4D:BD:84:EB:12:D3:44:A5:36:FB:BD
            X509v3 Authority Key Identifier: 
                keyid:49:02:46:45:81:23:F1:EE:06:68:79:50:18:B0:C0:1E:13:98:B4:08
                DirName:/C=SE/ST=Stockholm/L=Kista/O=RISE/O=Security Lab/OU=5GEnsure/CN=khalid/emailAddress=khalid@rise.se
                serial:94:02:93:00:B4:2B:9D:A3

    Signature Algorithm: md5WithRSAEncryption
         79:70:b2:2f:10:54:ab:f3:32:50:6e:0e:ae:44:b1:43:87:fc:
         13:ca:54:23:ad:ec:3e:db:81:6e:10:1f:37:6f:87:42:ee:52:
         08:ae:6a:e3:bf:84:ea:36:e2:d3:e5:16:38:4e:ad:66:94:7c:
         ec:7b:f2:26:3f:1b:cb:e5:89:a1:e5:a9:6a:98:0a:65:b3:60:
         c0:ea:1d:b5:7e:9a:c2:db:aa:15:5e:b2:bf:11:75:62:db:04:
         fe:c4:89:d4:88:a7:7a:04:05:86:4f:13:08:a2:32:fd:3b:ee:
         4d:b7:e2:7c:41:59:c3:e4:10:a5:99:f8:e0:8d:7c:34:3d:1c:
         66:be
-----BEGIN CERTIFICATE-----
MIIEaTCCA9KgAwIBAgIDEAABMA0GCSqGSIb3DQEBBAUAMIGaMQswCQYDVQQGEwJT
RTESMBAGA1UECBMJU3RvY2tob2xtMQ4wDAYDVQQHEwVLaXN0YTENMAsGA1UEChME
UklTRTEVMBMGA1UEChMMU2VjdXJpdHkgTGFiMREwDwYDVQQLEwg1R0Vuc3VyZTEP
MA0GA1UEAxMGa2hhbGlkMR0wGwYJKoZIhvcNAQkBFg5raGFsaWRAcmlzZS5zZTAe
Fw0xNzAzMjMxNTM5NDBaFw0xODAzMjMxNTM5NDBaMIGhMQswCQYDVQQGEwJTRTES
MBAGA1UECBMJU3RvY2tob2xtMQ4wDAYDVQQHEwVLaXN0YTENMAsGA1UEChMEUklT
RTEVMBMGA1UEChMMU2VjdXJpdHkgTGFiMREwDwYDVQQLEwg1R0Vuc3VyZTETMBEG
A1UEAxMKY29udHJvbGxlcjEgMB4GCSqGSIb3DQEJARYRY29udHJvbGxlckBzZG4u
c2UwggEiMA0GCSqGSIb3DQEBAQUAA4IBDwAwggEKAoIBAQCwpI8a8o0j6sgZKGp3
fLWmnpZZrez5gjZdJgPVt8Avj6TtDqn7tHALiXacrEjmRM6BytyaUypi/2W5ZHGI
BC/OTYNnLjcmFNkgiQ/tMSdKiKQpvQe8jQrt5/41ZTTru1asAxNmNG6w6thDvxj6
MQHsRdDTxtuZy13ByQSBBsZEz3olc6+FS+XZthapvU9kxM/fZsVF8xY2iB3Y5eDb
7Gs0+R0hC4ly3oaGMwqvNlfe9PKeL3Q/dZYb7VckwfBc1dCVHgpU8RwbxarTMBJj
rgtGrln+gbYLahO3yhDor7uuQRUlMNnzLMkjdUfOXZ1LRvWq42NcifzsZ+fDqwQE
9+jnAgMBAAGjggEuMIIBKjAJBgNVHRMEAjAAMCwGCWCGSAGG+EIBDQQfFh1PcGVu
U1NMIEdlbmVyYXRlZCBDZXJ0aWZpY2F0ZTAdBgNVHQ4EFgQUMWGQ9/H7AdK+Tb2E
6xLTRKU2+70wgc8GA1UdIwSBxzCBxIAUSQJGRYEj8e4GaHlQGLDAHhOYtAihgaCk
gZ0wgZoxCzAJBgNVBAYTAlNFMRIwEAYDVQQIEwlTdG9ja2hvbG0xDjAMBgNVBAcT
BUtpc3RhMQ0wCwYDVQQKEwRSSVNFMRUwEwYDVQQKEwxTZWN1cml0eSBMYWIxETAP
BgNVBAsTCDVHRW5zdXJlMQ8wDQYDVQQDEwZraGFsaWQxHTAbBgkqhkiG9w0BCQEW
DmtoYWxpZEByaXNlLnNlggkAlAKTALQrnaMwDQYJKoZIhvcNAQEEBQADgYEAeXCy
LxBUq/MyUG4OrkSxQ4f8E8pUI63sPtuBbhAfN2+HQu5SCK5q47+E6jbi0+UWOE6t
ZpR87HvyJj8by+WJoeWpapgKZbNgwOodtX6awtuqFV6yvxF1YtsE/sSJ1IinegQF
hk8TCKIy/TvuTbfifEFZw+QQpZn44I18ND0cZr4=
-----END CERTIFICATE-----
