Certificate:
    Data:
        Version: 3 (0x2)
        Serial Number: 1051155 (0x100a13)
    Signature Algorithm: md5WithRSAEncryption
        Issuer: C=SE, ST=Stockholm, L=Kista, O=RISE, O=Security Lab, OU=5GEnsure, CN=khalid/emailAddress=khalid@rise.se
        Validity
            Not Before: Oct 25 11:10:13 2017 GMT
            Not After : Oct 25 11:10:13 2018 GMT
        Subject: CN=openvswitch
        Subject Public Key Info:
            Public Key Algorithm: rsaEncryption
                Public-Key: (2048 bit)
                Modulus:
                    00:d0:83:da:d9:ca:47:84:64:fd:93:a1:35:12:7f:
                    70:51:2f:1a:76:79:e5:dd:6c:70:66:29:8d:51:26:
                    eb:72:db:ab:69:d1:fa:56:70:06:f7:8f:0d:0f:50:
                    46:bb:48:3f:8a:a8:4a:fa:cc:f7:56:cc:02:9e:51:
                    f9:8e:f5:6f:6a:b6:1c:71:a1:58:13:38:e4:fc:c7:
                    0d:d6:12:c6:ec:88:4d:fd:e2:7c:bf:05:d4:9e:ec:
                    57:72:d4:1e:69:dc:7f:e0:9b:72:d8:90:4a:4b:6c:
                    d8:f7:9f:bd:e1:d9:a0:a5:f4:3f:a2:89:4c:c7:bf:
                    a2:90:82:7f:80:40:b6:1d:f1:d6:4c:86:4b:8b:e6:
                    be:3e:6f:01:b0:c7:bb:14:91:cd:c7:b5:6b:a0:74:
                    32:69:4d:c7:6b:3e:08:3c:d7:a8:40:2b:f5:29:cb:
                    19:9f:1b:ed:e4:c3:ef:a5:bc:04:b9:81:f7:10:ea:
                    c0:ed:4c:b9:32:c3:84:b8:17:34:3b:a0:1e:30:41:
                    7e:c8:6f:ce:91:6f:53:42:74:c6:69:0a:92:d2:fc:
                    42:b6:eb:28:59:e7:1a:67:84:a8:a5:e0:18:c7:fa:
                    cf:53:c8:30:41:b6:03:11:1b:76:f6:e6:b9:1b:eb:
                    35:ad:63:aa:88:25:45:d0:aa:bc:e4:52:ab:2c:88:
                    a7:5b
                Exponent: 65537 (0x10001)
        X509v3 extensions:
            X509v3 Basic Constraints: 
                CA:FALSE
            Netscape Comment: 
                OpenSSL Generated Certificate
            X509v3 Subject Key Identifier: 
                EB:09:C0:3C:38:C0:A6:C9:B8:FB:5F:C5:69:1D:53:A8:DC:A8:CF:B8
            X509v3 Authority Key Identifier: 
                keyid:49:02:46:45:81:23:F1:EE:06:68:79:50:18:B0:C0:1E:13:98:B4:08
                DirName:/C=SE/ST=Stockholm/L=Kista/O=RISE/O=Security Lab/OU=5GEnsure/CN=khalid/emailAddress=khalid@rise.se
                serial:94:02:93:00:B4:2B:9D:A3

    Signature Algorithm: md5WithRSAEncryption
         72:d6:76:ac:29:7a:19:7f:7e:ba:26:58:d0:31:fa:e5:8c:d9:
         ac:ac:b1:f6:45:9a:f2:bc:79:64:14:cc:a8:f4:94:49:88:5b:
         6d:52:c7:1b:57:de:92:72:29:fa:0b:de:3a:03:09:b5:a9:c3:
         03:f7:25:a7:ce:35:26:4d:e6:0e:c1:23:4b:f6:78:84:c7:01:
         bd:9b:6f:eb:1d:83:d3:1d:17:28:5b:e2:ce:4f:e5:cb:26:f2:
         0e:04:d5:4b:a2:3b:8c:db:3e:37:2c:b9:6d:b2:f8:ab:4a:b5:
         58:a0:ea:8f:9e:19:a2:58:72:c5:f4:27:c9:c4:1f:3e:e5:14:
         1e:ff
-----BEGIN CERTIFICATE-----
MIID3TCCA0agAwIBAgIDEAoTMA0GCSqGSIb3DQEBBAUAMIGaMQswCQYDVQQGEwJT
RTESMBAGA1UECBMJU3RvY2tob2xtMQ4wDAYDVQQHEwVLaXN0YTENMAsGA1UEChME
UklTRTEVMBMGA1UEChMMU2VjdXJpdHkgTGFiMREwDwYDVQQLEwg1R0Vuc3VyZTEP
MA0GA1UEAxMGa2hhbGlkMR0wGwYJKoZIhvcNAQkBFg5raGFsaWRAcmlzZS5zZTAe
Fw0xNzEwMjUxMTEwMTNaFw0xODEwMjUxMTEwMTNaMBYxFDASBgNVBAMTC29wZW52
c3dpdGNoMIIBIjANBgkqhkiG9w0BAQEFAAOCAQ8AMIIBCgKCAQEA0IPa2cpHhGT9
k6E1En9wUS8adnnl3WxwZimNUSbrcturadH6VnAG948ND1BGu0g/iqhK+sz3VswC
nlH5jvVvarYccaFYEzjk/McN1hLG7IhN/eJ8vwXUnuxXctQeadx/4Jty2JBKS2zY
95+94dmgpfQ/oolMx7+ikIJ/gEC2HfHWTIZLi+a+Pm8BsMe7FJHNx7VroHQyaU3H
az4IPNeoQCv1KcsZnxvt5MPvpbwEuYH3EOrA7Uy5MsOEuBc0O6AeMEF+yG/OkW9T
QnTGaQqS0vxCtusoWecaZ4SopeAYx/rPU8gwQbYDERt29ua5G+s1rWOqiCVF0Kq8
5FKrLIinWwIDAQABo4IBLjCCASowCQYDVR0TBAIwADAsBglghkgBhvhCAQ0EHxYd
T3BlblNTTCBHZW5lcmF0ZWQgQ2VydGlmaWNhdGUwHQYDVR0OBBYEFOsJwDw4wKbJ
uPtfxWkdU6jcqM+4MIHPBgNVHSMEgccwgcSAFEkCRkWBI/HuBmh5UBiwwB4TmLQI
oYGgpIGdMIGaMQswCQYDVQQGEwJTRTESMBAGA1UECBMJU3RvY2tob2xtMQ4wDAYD
VQQHEwVLaXN0YTENMAsGA1UEChMEUklTRTEVMBMGA1UEChMMU2VjdXJpdHkgTGFi
MREwDwYDVQQLEwg1R0Vuc3VyZTEPMA0GA1UEAxMGa2hhbGlkMR0wGwYJKoZIhvcN
AQkBFg5raGFsaWRAcmlzZS5zZYIJAJQCkwC0K52jMA0GCSqGSIb3DQEBBAUAA4GB
AHLWdqwpehl/fromWNAx+uWM2ayssfZFmvK8eWQUzKj0lEmIW21SxxtX3pJyKfoL
3joDCbWpwwP3JafONSZN5g7BI0v2eITHAb2bb+sdg9MdFyhb4s5P5csm8g4E1Uui
O4zbPjcsuW2y+KtKtVig6o+eGaJYcsX0J8nEHz7lFB7/
-----END CERTIFICATE-----
